target datalayout = "e-m:e-p270:32:32-p271:32:32-p272:64:64-i64:64-i128:128-f80:128-n8:16:32:64-S128"
target triple = "x86_64-pc-linux-gnu"

%"class.pxrInternal_v0_24__pxrReserved__::TsSpline" = type { %"class.std::shared_ptr" }
%"class.std::shared_ptr" = type { %"class.std::__shared_ptr" }
%"class.std::__shared_ptr" = type { ptr, %"class.std::__shared_count" }
%"class.std::__shared_count" = type { ptr }
%"class.std::_Sp_counted_base" = type { ptr, i32, i32 }

@__libc_single_threaded = external global i8, align 1

; Function Attrs: noreturn nounwind uwtable
define linkonce_odr hidden void @__clang_call_terminate(ptr noundef %0) #9 comdat {
  %2 = call ptr @__cxa_begin_catch(ptr %0) #3
  call void @_ZSt9terminatev() #16
  unreachable
}

; Function Attrs: mustprogress uwtable
define linkonce_odr void @_ZNSt16_Sp_counted_baseILN9__gnu_cxx12_Lock_policyE2EE15_M_add_ref_copyEv(ptr noundef nonnull align 8 dereferenceable(16) %0) #4 comdat align 2 {
  %2 = alloca ptr, align 8
  %3 = alloca i32, align 4
  %4 = alloca i32, align 4
  %5 = alloca i32, align 4
  %6 = alloca ptr, align 8
  %7 = alloca i32, align 4
  %8 = alloca ptr, align 8
  %9 = alloca i32, align 4
  %10 = alloca ptr, align 8
  store ptr %0, ptr %10, align 8
  %11 = load ptr, ptr %10, align 8
  %12 = getelementptr inbounds nuw %"class.std::_Sp_counted_base", ptr %11, i32 0, i32 1
  store ptr %12, ptr %8, align 8
  store i32 1, ptr %9, align 4
  %13 = load i8, ptr @__libc_single_threaded, align 1
  %14 = icmp ne i8 %13, 0
  br i1 %14, label %15, label %22

15:                                               ; preds = %1
  %16 = load ptr, ptr %8, align 8
  %17 = load i32, ptr %9, align 4
  store ptr %16, ptr %6, align 8
  store i32 %17, ptr %7, align 4
  %18 = load i32, ptr %7, align 4
  %19 = load ptr, ptr %6, align 8
  %20 = load i32, ptr %19, align 4
  %21 = add nsw i32 %20, %18
  store i32 %21, ptr %19, align 4
  br label %29

22:                                               ; preds = %1
  %23 = load ptr, ptr %8, align 8
  %24 = load i32, ptr %9, align 4
  store ptr %23, ptr %2, align 8
  store i32 %24, ptr %3, align 4
  %25 = load ptr, ptr %2, align 8
  %26 = load i32, ptr %3, align 4
  store i32 %26, ptr %4, align 4
  %27 = load i32, ptr %4, align 4
  %28 = atomicrmw volatile add ptr %25, i32 %27 acq_rel, align 4
  store i32 %28, ptr %5, align 4
  br label %29

29:                                               ; preds = %22, %15
  ret void
}

; Function Attrs: mustprogress nounwind uwtable
define linkonce_odr void @_ZNSt14__shared_countILN9__gnu_cxx12_Lock_policyE2EEC2ERKS2_(ptr noundef nonnull align 8 dereferenceable(8) %0, ptr noundef nonnull align 8 dereferenceable(8) %1) unnamed_addr #5 comdat align 2 personality ptr @__gxx_personality_v0 {
  %3 = alloca ptr, align 8
  %4 = alloca ptr, align 8
  store ptr %0, ptr %3, align 8
  store ptr %1, ptr %4, align 8
  %5 = load ptr, ptr %3, align 8
  %6 = getelementptr inbounds nuw %"class.std::__shared_count", ptr %5, i32 0, i32 0
  %7 = load ptr, ptr %4, align 8
  %8 = getelementptr inbounds nuw %"class.std::__shared_count", ptr %7, i32 0, i32 0
  %9 = load ptr, ptr %8, align 8
  store ptr %9, ptr %6, align 8
  %10 = getelementptr inbounds nuw %"class.std::__shared_count", ptr %5, i32 0, i32 0
  %11 = load ptr, ptr %10, align 8
  %12 = icmp ne ptr %11, null
  br i1 %12, label %13, label %17

13:                                               ; preds = %2
  %14 = getelementptr inbounds nuw %"class.std::__shared_count", ptr %5, i32 0, i32 0
  %15 = load ptr, ptr %14, align 8
  invoke void @_ZNSt16_Sp_counted_baseILN9__gnu_cxx12_Lock_policyE2EE15_M_add_ref_copyEv(ptr noundef nonnull align 8 dereferenceable(16) %15)
          to label %16 unwind label %18

16:                                               ; preds = %13
  br label %17

17:                                               ; preds = %16, %2
  ret void

18:                                               ; preds = %13
  %19 = landingpad { ptr, i32 }
          catch ptr null
  %20 = extractvalue { ptr, i32 } %19, 0
  call void @__clang_call_terminate(ptr %20) #16
  unreachable
}

; Function Attrs: mustprogress nounwind uwtable
define linkonce_odr void @_ZNSt12__shared_ptrIN32pxrInternal_v0_24__pxrReserved__18TsSpline_KeyFramesELN9__gnu_cxx12_Lock_policyE2EEC2ERKS4_(ptr noundef nonnull align 8 dereferenceable(16) %0, ptr noundef nonnull align 8 dereferenceable(16) %1) unnamed_addr #5 comdat align 2 {
  %3 = alloca ptr, align 8
  %4 = alloca ptr, align 8
  store ptr %0, ptr %3, align 8
  store ptr %1, ptr %4, align 8
  %5 = load ptr, ptr %3, align 8
  %6 = getelementptr inbounds nuw %"class.std::__shared_ptr", ptr %5, i32 0, i32 0
  %7 = load ptr, ptr %4, align 8
  %8 = getelementptr inbounds nuw %"class.std::__shared_ptr", ptr %7, i32 0, i32 0
  %9 = load ptr, ptr %8, align 8
  store ptr %9, ptr %6, align 8
  %10 = getelementptr inbounds nuw %"class.std::__shared_ptr", ptr %5, i32 0, i32 1
  %11 = load ptr, ptr %4, align 8
  %12 = getelementptr inbounds nuw %"class.std::__shared_ptr", ptr %11, i32 0, i32 1
  call void @_ZNSt14__shared_countILN9__gnu_cxx12_Lock_policyE2EEC2ERKS2_(ptr noundef nonnull align 8 dereferenceable(8) %10, ptr noundef nonnull align 8 dereferenceable(8) %12) #3
  ret void
}

; Function Attrs: mustprogress nounwind uwtable
define linkonce_odr void @_ZNSt10shared_ptrIN32pxrInternal_v0_24__pxrReserved__18TsSpline_KeyFramesEEC2ERKS2_(ptr noundef nonnull align 8 dereferenceable(16) %0, ptr noundef nonnull align 8 dereferenceable(16) %1) unnamed_addr #5 comdat align 2 {
  %3 = alloca ptr, align 8
  %4 = alloca ptr, align 8
  store ptr %0, ptr %3, align 8
  store ptr %1, ptr %4, align 8
  %5 = load ptr, ptr %3, align 8
  %6 = load ptr, ptr %4, align 8
  call void @_ZNSt12__shared_ptrIN32pxrInternal_v0_24__pxrReserved__18TsSpline_KeyFramesELN9__gnu_cxx12_Lock_policyE2EEC2ERKS4_(ptr noundef nonnull align 8 dereferenceable(16) %5, ptr noundef nonnull align 8 dereferenceable(16) %6) #3
  ret void
}

; Function Attrs: mustprogress nounwind uwtable
define void @_ZN32pxrInternal_v0_24__pxrReserved__8TsSplineC2ERKS0_(ptr noundef nonnull align 8 dereferenceable(16) %0, ptr noundef nonnull align 8 dereferenceable(16) %1) unnamed_addr #5 align 2 {
  %3 = alloca ptr, align 8
  %4 = alloca ptr, align 8
  store ptr %0, ptr %3, align 8
  store ptr %1, ptr %4, align 8
  %5 = load ptr, ptr %3, align 8
  %6 = getelementptr inbounds nuw %"class.pxrInternal_v0_24__pxrReserved__::TsSpline", ptr %5, i32 0, i32 0
  %7 = load ptr, ptr %4, align 8
  %8 = getelementptr inbounds nuw %"class.pxrInternal_v0_24__pxrReserved__::TsSpline", ptr %7, i32 0, i32 0
  call void @_ZNSt10shared_ptrIN32pxrInternal_v0_24__pxrReserved__18TsSpline_KeyFramesEEC2ERKS2_(ptr noundef nonnull align 8 dereferenceable(16) %6, ptr noundef nonnull align 8 dereferenceable(16) %8) #3
  ret void
}